target datalayout = "e-m:e-p270:32:32-p271:32:32-p272:64:64-i64:64-i128:128-f80:128-n8:16:32:64-S128"
target triple = "x86_64-pc-linux-gnu"

%struct.aom_reader = type { ptr, ptr, %struct.od_ec_dec, i8 }
%struct.od_ec_dec = type { ptr, i32, ptr, ptr, i32, i16, i16 }

; Function Attrs: nounwind uwtable
define hidden i32 @aom_reader_init(ptr noundef %0, ptr noundef %1, i64 noundef %2) #0 {
  %4 = alloca i32, align 4
  %5 = alloca ptr, align 8
  %6 = alloca ptr, align 8
  %7 = alloca i64, align 8
  store ptr %0, ptr %5, align 8
  store ptr %1, ptr %6, align 8
  store i64 %2, ptr %7, align 8
  %8 = load i64, ptr %7, align 8
  %9 = icmp ne i64 %8, 0
  br i1 %9, label %10, label %14

10:                                               ; preds = %3
  %11 = load ptr, ptr %6, align 8
  %12 = icmp ne ptr %11, null
  br i1 %12, label %14, label %13

13:                                               ; preds = %10
  store i32 1, ptr %4, align 4
  br label %28

14:                                               ; preds = %10, %3
  %15 = load ptr, ptr %6, align 8
  %16 = load i64, ptr %7, align 8
  %17 = getelementptr inbounds i8, ptr %15, i64 %16
  %18 = load ptr, ptr %5, align 8
  %19 = getelementptr inbounds nuw %struct.aom_reader, ptr %18, i32 0, i32 1
  store ptr %17, ptr %19, align 8
  %20 = load ptr, ptr %6, align 8
  %21 = load ptr, ptr %5, align 8
  %22 = getelementptr inbounds nuw %struct.aom_reader, ptr %21, i32 0, i32 0
  store ptr %20, ptr %22, align 8
  %23 = load ptr, ptr %5, align 8
  %24 = getelementptr inbounds nuw %struct.aom_reader, ptr %23, i32 0, i32 2
  %25 = load ptr, ptr %6, align 8
  %26 = load i64, ptr %7, align 8
  %27 = trunc i64 %26 to i32
  call void @od_ec_dec_init(ptr noundef %24, ptr noundef %25, i32 noundef %27)
  store i32 0, ptr %4, align 4
  br label %28

28:                                               ; preds = %14, %13
  %29 = load i32, ptr %4, align 4
  ret i32 %29
}

declare void @od_ec_dec_init(ptr noundef, ptr noundef, i32 noundef) #1

; Function Attrs: nounwind uwtable
define hidden ptr @aom_reader_find_begin(ptr noundef %0) #0 {
  %2 = alloca ptr, align 8
  store ptr %0, ptr %2, align 8
  %3 = load ptr, ptr %2, align 8
  %4 = getelementptr inbounds nuw %struct.aom_reader, ptr %3, i32 0, i32 0
  %5 = load ptr, ptr %4, align 8
  ret ptr %5
}

; Function Attrs: nounwind uwtable
define hidden ptr @aom_reader_find_end(ptr noundef %0) #0 {
  %2 = alloca ptr, align 8
  store ptr %0, ptr %2, align 8
  %3 = load ptr, ptr %2, align 8
  %4 = getelementptr inbounds nuw %struct.aom_reader, ptr %3, i32 0, i32 1
  %5 = load ptr, ptr %4, align 8
  ret ptr %5
}

; Function Attrs: nounwind uwtable
define hidden i32 @aom_reader_tell(ptr noundef %0) #0 {
  %2 = alloca ptr, align 8
  store ptr %0, ptr %2, align 8
  %3 = load ptr, ptr %2, align 8
  %4 = getelementptr inbounds nuw %struct.aom_reader, ptr %3, i32 0, i32 2
  %5 = call i32 @od_ec_dec_tell(ptr noundef %4)
  ret i32 %5
}

declare i32 @od_ec_dec_tell(ptr noundef) #1

; Function Attrs: nounwind uwtable
define hidden i32 @aom_reader_tell_frac(ptr noundef %0) #0 {
  %2 = alloca ptr, align 8
  store ptr %0, ptr %2, align 8
  %3 = load ptr, ptr %2, align 8
  %4 = getelementptr inbounds nuw %struct.aom_reader, ptr %3, i32 0, i32 2
  %5 = call i32 @od_ec_dec_tell_frac(ptr noundef %4)
  ret i32 %5
}

declare i32 @od_ec_dec_tell_frac(ptr noundef) #1

; Function Attrs: nounwind uwtable
define hidden i32 @aom_reader_has_overflowed(ptr noundef %0) #0 {
  %2 = alloca ptr, align 8
  %3 = alloca i32, align 4
  %4 = alloca i32, align 4
  store ptr %0, ptr %2, align 8
  %5 = load ptr, ptr %2, align 8
  %6 = call i32 @aom_reader_tell(ptr noundef %5)
  store i32 %6, ptr %3, align 4
  %7 = load i32, ptr %3, align 4
  %8 = add i32 %7, 7
  %9 = lshr i32 %8, 3
  store i32 %9, ptr %4, align 4
  %10 = load i32, ptr %4, align 4
  %11 = zext i32 %10 to i64
  %12 = load ptr, ptr %2, align 8
  %13 = getelementptr inbounds nuw %struct.aom_reader, ptr %12, i32 0, i32 1
  %14 = load ptr, ptr %13, align 8
  %15 = load ptr, ptr %2, align 8
  %16 = getelementptr inbounds nuw %struct.aom_reader, ptr %15, i32 0, i32 0
  %17 = load ptr, ptr %16, align 8
  %18 = ptrtoint ptr %14 to i64
  %19 = ptrtoint ptr %17 to i64
  %20 = sub i64 %18, %19
  %21 = icmp sgt i64 %11, %20
  %22 = zext i1 %21 to i32
  ret i32 %22
}


!llvm.module.flags = !{!0, !1, !2, !3}

!0 = !{i32 1, !"wchar_size", i32 4}
!1 = !{i32 8, !"PIC Level", i32 2}
!2 = !{i32 7, !"uwtable", i32 2}
!3 = !{i32 7, !"frame-pointer", i32 2}
