; ModuleID = 'bench/openusd/original/bitreader.c.ll'
source_filename = "bench/openusd/original/bitreader.c.ll"
target datalayout = "e-m:e-p270:32:32-p271:32:32-p272:64:64-i64:64-i128:128-f80:128-n8:16:32:64-S128"
target triple = "x86_64-pc-linux-gnu"

; Function Attrs: nounwind uwtable
define hidden range(i32 0, 2) i32 @aom_reader_init(ptr noundef %0, ptr noundef %1, i64 noundef %2) local_unnamed_addr #0 {
  %4 = icmp eq i64 %2, 0
  %5 = icmp ne ptr %1, null
  %or.cond = or i1 %5, %4
  br i1 %or.cond, label %6, label %11

6:                                                ; preds = %3
  %7 = getelementptr inbounds i8, ptr %1, i64 %2
  %8 = getelementptr inbounds nuw i8, ptr %0, i64 8
  store ptr %7, ptr %8, align 8
  store ptr %1, ptr %0, align 8
  %9 = getelementptr inbounds nuw i8, ptr %0, i64 16
  %10 = trunc i64 %2 to i32
  tail call void @od_ec_dec_init(ptr noundef nonnull %9, ptr noundef %1, i32 noundef %10) #3
  br label %11

11:                                               ; preds = %3, %6
  %.0 = phi i32 [ 0, %6 ], [ 1, %3 ]
  ret i32 %.0
}

declare void @od_ec_dec_init(ptr noundef, ptr noundef, i32 noundef) local_unnamed_addr #1

; Function Attrs: mustprogress nofree norecurse nosync nounwind willreturn memory(argmem: read) uwtable
define hidden ptr @aom_reader_find_begin(ptr noundef readonly captures(none) %0) local_unnamed_addr #2 {
  %2 = load ptr, ptr %0, align 8
  ret ptr %2
}

; Function Attrs: mustprogress nofree norecurse nosync nounwind willreturn memory(argmem: read) uwtable
define hidden ptr @aom_reader_find_end(ptr noundef readonly captures(none) %0) local_unnamed_addr #2 {
  %2 = getelementptr inbounds nuw i8, ptr %0, i64 8
  %3 = load ptr, ptr %2, align 8
  ret ptr %3
}

; Function Attrs: nounwind uwtable
define hidden i32 @aom_reader_tell(ptr noundef %0) local_unnamed_addr #0 {
  %2 = getelementptr inbounds nuw i8, ptr %0, i64 16
  %3 = tail call i32 @od_ec_dec_tell(ptr noundef nonnull %2) #3
  ret i32 %3
}

declare i32 @od_ec_dec_tell(ptr noundef) local_unnamed_addr #1

; Function Attrs: nounwind uwtable
define hidden i32 @aom_reader_tell_frac(ptr noundef %0) local_unnamed_addr #0 {
  %2 = getelementptr inbounds nuw i8, ptr %0, i64 16
  %3 = tail call i32 @od_ec_dec_tell_frac(ptr noundef nonnull %2) #3
  ret i32 %3
}

declare i32 @od_ec_dec_tell_frac(ptr noundef) local_unnamed_addr #1

; Function Attrs: nounwind uwtable
define hidden range(i32 0, 2) i32 @aom_reader_has_overflowed(ptr noundef %0) local_unnamed_addr #0 {
  %2 = getelementptr inbounds nuw i8, ptr %0, i64 16
  %3 = tail call i32 @od_ec_dec_tell(ptr noundef nonnull %2) #3
  %4 = add i32 %3, 7
  %5 = lshr i32 %4, 3
  %6 = zext nneg i32 %5 to i64
  %7 = getelementptr inbounds nuw i8, ptr %0, i64 8
  %8 = load ptr, ptr %7, align 8
  %9 = load ptr, ptr %0, align 8
  %10 = ptrtoint ptr %8 to i64
  %11 = ptrtoint ptr %9 to i64
  %12 = sub i64 %10, %11
  %13 = icmp slt i64 %12, %6
  %14 = zext i1 %13 to i32
  ret i32 %14
}


!llvm.module.flags = !{!0, !1, !2, !3}

!0 = !{i32 1, !"wchar_size", i32 4}
!1 = !{i32 8, !"PIC Level", i32 2}
!2 = !{i32 7, !"uwtable", i32 2}
!3 = !{i32 7, !"frame-pointer", i32 2}
